target datalayout = "e-m:e-p270:32:32-p271:32:32-p272:64:64-i64:64-i128:128-f80:128-n8:16:32:64-S128"
target triple = "x86_64-pc-linux-gnu"

%struct.mi_heap_s = type { ptr, [129 x ptr], [75 x %struct.mi_page_queue_s], ptr, i64, i64, [2 x i64], %struct.mi_random_cxt_s, i64, i64, i64, ptr, i8 }
%struct.mi_page_queue_s = type { ptr, ptr, i64 }
%struct.mi_random_cxt_s = type { [16 x i32], [16 x i32], i32 }
%struct.mi_tld_s = type { i64, i8, ptr, ptr, %struct.mi_segments_tld_s, %struct.mi_os_tld_s, %struct.mi_stats_s }
%struct.mi_segments_tld_s = type { [36 x %struct.mi_span_queue_s], i64, i64, i64, i64, ptr, ptr }
%struct.mi_span_queue_s = type { ptr, ptr, i64 }
%struct.mi_os_tld_s = type { i64, ptr }
%struct.mi_stats_s = type { %struct.mi_stat_count_s, %struct.mi_stat_count_s, %struct.mi_stat_count_s, %struct.mi_stat_count_s, %struct.mi_stat_count_s, %struct.mi_stat_count_s, %struct.mi_stat_count_s, %struct.mi_stat_count_s, %struct.mi_stat_count_s, %struct.mi_stat_count_s, %struct.mi_stat_count_s, %struct.mi_stat_count_s, %struct.mi_stat_count_s, %struct.mi_stat_count_s, %struct.mi_stat_counter_s, %struct.mi_stat_counter_s, %struct.mi_stat_counter_s, %struct.mi_stat_counter_s, %struct.mi_stat_counter_s, %struct.mi_stat_counter_s, %struct.mi_stat_counter_s, %struct.mi_stat_counter_s }
%struct.mi_stat_count_s = type { i64, i64, i64, i64 }
%struct.mi_stat_counter_s = type { i64, i64 }

@deferred_free = internal global ptr null, align 8
@deferred_arg = internal global ptr null, align 8

; Function Attrs: nounwind uwtable
define hidden void @_mi_deferred_free(ptr noundef %0, i1 noundef zeroext %1) #0 {
  %3 = alloca ptr, align 8
  %4 = alloca i8, align 1
  %5 = alloca ptr, align 8
  store ptr %0, ptr %3, align 8, !tbaa !12
  %6 = zext i1 %1 to i8
  store i8 %6, ptr %4, align 1, !tbaa !28
  %7 = load ptr, ptr %3, align 8, !tbaa !12
  %8 = getelementptr inbounds nuw %struct.mi_heap_s, ptr %7, i32 0, i32 0
  %9 = load ptr, ptr %8, align 8, !tbaa !58
  %10 = getelementptr inbounds nuw %struct.mi_tld_s, ptr %9, i32 0, i32 0
  %11 = load i64, ptr %10, align 8, !tbaa !64
  %12 = add i64 %11, 1
  store i64 %12, ptr %10, align 8, !tbaa !64
  %13 = load volatile ptr, ptr @deferred_free, align 8, !tbaa !53
  %14 = icmp ne ptr %13, null
  br i1 %14, label %15, label %41

15:                                               ; preds = %2
  %16 = load ptr, ptr %3, align 8, !tbaa !12
  %17 = getelementptr inbounds nuw %struct.mi_heap_s, ptr %16, i32 0, i32 0
  %18 = load ptr, ptr %17, align 8, !tbaa !58
  %19 = getelementptr inbounds nuw %struct.mi_tld_s, ptr %18, i32 0, i32 1
  %20 = load i8, ptr %19, align 8, !tbaa !74, !range !30, !noundef !31
  %21 = trunc i8 %20 to i1
  br i1 %21, label %41, label %22

22:                                               ; preds = %15
  %23 = load ptr, ptr %3, align 8, !tbaa !12
  %24 = getelementptr inbounds nuw %struct.mi_heap_s, ptr %23, i32 0, i32 0
  %25 = load ptr, ptr %24, align 8, !tbaa !58
  %26 = getelementptr inbounds nuw %struct.mi_tld_s, ptr %25, i32 0, i32 1
  store i8 1, ptr %26, align 8, !tbaa !74
  %27 = load volatile ptr, ptr @deferred_free, align 8, !tbaa !53
  %28 = load i8, ptr %4, align 1, !tbaa !28, !range !30, !noundef !31
  %29 = trunc i8 %28 to i1
  %30 = load ptr, ptr %3, align 8, !tbaa !12
  %31 = getelementptr inbounds nuw %struct.mi_heap_s, ptr %30, i32 0, i32 0
  %32 = load ptr, ptr %31, align 8, !tbaa !58
  %33 = getelementptr inbounds nuw %struct.mi_tld_s, ptr %32, i32 0, i32 0
  %34 = load i64, ptr %33, align 8, !tbaa !64
  %35 = load atomic i64, ptr @deferred_arg monotonic, align 8
  store i64 %35, ptr %5, align 8
  %36 = load ptr, ptr %5, align 8, !tbaa !53
  call void %27(i1 noundef zeroext %29, i64 noundef %34, ptr noundef %36)
  %37 = load ptr, ptr %3, align 8, !tbaa !12
  %38 = getelementptr inbounds nuw %struct.mi_heap_s, ptr %37, i32 0, i32 0
  %39 = load ptr, ptr %38, align 8, !tbaa !58
  %40 = getelementptr inbounds nuw %struct.mi_tld_s, ptr %39, i32 0, i32 1
  store i8 0, ptr %40, align 8, !tbaa !74
  br label %41

41:                                               ; preds = %22, %15, %2
  ret void
}