; Function Attrs: nounwind uwtable
define hidden void @_mi_deferred_free(ptr noundef readonly captures(none) %0, i1 noundef zeroext %1) local_unnamed_addr #1 {
  %3 = load ptr, ptr %0, align 8, !tbaa !47
  %4 = load i64, ptr %3, align 8, !tbaa !51
  %5 = add i64 %4, 1
  store i64 %5, ptr %3, align 8, !tbaa !51
  %6 = load volatile ptr, ptr @deferred_free, align 8, !tbaa !61
  %.not = icmp eq ptr %6, null
  br i1 %.not, label %17, label %7

7:                                                ; preds = %2
  %8 = getelementptr inbounds nuw i8, ptr %3, i64 8
  %9 = load i8, ptr %8, align 8, !tbaa !62, !range !63, !noundef !64
  %10 = trunc nuw i8 %9 to i1
  br i1 %10, label %17, label %11

11:                                               ; preds = %7
  store i8 1, ptr %8, align 8, !tbaa !62
  %12 = load volatile ptr, ptr @deferred_free, align 8, !tbaa !61
  %13 = load atomic i64, ptr @deferred_arg monotonic, align 8
  %14 = inttoptr i64 %13 to ptr
  tail call void %12(i1 noundef zeroext %1, i64 noundef %5, ptr noundef %14) #8
  %15 = load ptr, ptr %0, align 8, !tbaa !47
  %16 = getelementptr inbounds nuw i8, ptr %15, i64 8
  store i8 0, ptr %16, align 8, !tbaa !62
  br label %17

17:                                               ; preds = %11, %7, %2
  ret void
}